target datalayout = "e-m:e-p270:32:32-p271:32:32-p272:64:64-i64:64-i128:128-f80:128-n8:16:32:64-S128"
target triple = "x86_64-pc-linux-gnu"

%union.SourceSpan = type { i64 }
%struct.GenContext_ = type { i8, ptr, ptr, ptr, ptr, ptr, ptr, ptr, ptr, ptr, ptr, ptr, ptr, ptr, ptr, ptr, ptr, ptr, ptr, ptr, ptr, ptr, ptr, ptr, ptr, ptr, ptr, ptr, ptr, ptr, ptr, ptr, ptr, %struct.anon.85, i32, i32, %struct.DebugContext, ptr, ptr, ptr, %struct.BEValue, i8, %union.SourceSpan, ptr, ptr, ptr, ptr }
%struct.anon.85 = type { ptr, ptr, ptr }
%struct.DebugContext = type { i16, ptr, ptr, %struct.DebugFile_, ptr, ptr, ptr, ptr }
%struct.DebugFile_ = type { i16, ptr }
%struct.BEValue = type { i8, i32, ptr, ptr, ptr }
%struct.Decl_ = type { ptr, ptr, %union.SourceSpan, i64, %union.anon, i32, %union.anon.0, i64, ptr, ptr, ptr, %union.anon.1 }
%union.anon = type { ptr }
%union.anon.0 = type { i16 }
%union.anon.1 = type { %struct.FuncDecl }
%struct.FuncDecl = type { i32, [4 x i8], %struct.Signature_, i32, i32, %union.anon.8 }
%struct.Signature_ = type <{ %struct.CalleeAttributes, i16, i8, i32, i32, [4 x i8], ptr }>
%struct.CalleeAttributes = type { i8 }
%union.anon.8 = type { %struct.anon.9 }
%struct.anon.9 = type { i16, %union.anon.10 }
%union.anon.10 = type { ptr }

@type_void = external global ptr, align 8
@.str.12 = private unnamed_addr constant [6 x i8] c".anon\00", align 1

; Function Attrs: nounwind uwtable
define dso_local ptr @llvm_emit_alloca(ptr noundef %0, ptr noundef %1, i32 noundef %2, ptr noundef %3) #0 {
  %5 = alloca ptr, align 8
  %6 = alloca i32, align 4
  %7 = alloca ptr, align 8
  %8 = alloca ptr, align 8
  %9 = alloca i32, align 4
  %10 = alloca ptr, align 8
  %11 = alloca ptr, align 8
  %12 = alloca ptr, align 8
  store ptr %0, ptr %7, align 8
  store ptr %1, ptr %8, align 8
  store i32 %2, ptr %9, align 4
  store ptr %3, ptr %10, align 8
  %13 = load ptr, ptr %7, align 8
  %14 = getelementptr inbounds %struct.GenContext_, ptr %13, i32 0, i32 8
  %15 = load ptr, ptr %14, align 8
  %16 = call ptr @LLVMGetInsertBlock(ptr noundef %15)
  store ptr %16, ptr %11, align 8
  %17 = load ptr, ptr %7, align 8
  %18 = getelementptr inbounds %struct.GenContext_, ptr %17, i32 0, i32 8
  %19 = load ptr, ptr %18, align 8
  %20 = load ptr, ptr %7, align 8
  %21 = getelementptr inbounds %struct.GenContext_, ptr %20, i32 0, i32 7
  %22 = load ptr, ptr %21, align 8
  call void @LLVMPositionBuilderBefore(ptr noundef %19, ptr noundef %22)
  %23 = load ptr, ptr %7, align 8
  %24 = getelementptr inbounds %struct.GenContext_, ptr %23, i32 0, i32 8
  %25 = load ptr, ptr %24, align 8
  %26 = load ptr, ptr %8, align 8
  %27 = load ptr, ptr %10, align 8
  %28 = call ptr @LLVMBuildAlloca(ptr noundef %25, ptr noundef %26, ptr noundef %27)
  store ptr %28, ptr %12, align 8
  %29 = load ptr, ptr %12, align 8
  %30 = load i32, ptr %9, align 4
  store ptr %29, ptr %5, align 8
  store i32 %30, ptr %6, align 4
  %31 = load ptr, ptr %5, align 8
  %32 = load i32, ptr %6, align 4
  call void @LLVMSetAlignment(ptr noundef %31, i32 noundef %32) #7
  %33 = load ptr, ptr %7, align 8
  %34 = getelementptr inbounds %struct.GenContext_, ptr %33, i32 0, i32 8
  %35 = load ptr, ptr %34, align 8
  %36 = load ptr, ptr %11, align 8
  call void @LLVMPositionBuilderAtEnd(ptr noundef %35, ptr noundef %36)
  %37 = load ptr, ptr %12, align 8
  ret ptr %37
}

; Function Attrs: nounwind uwtable
define dso_local void @llvm_emit_and_set_decl_alloca(ptr noundef %0, ptr noundef %1) #0 {
  %3 = alloca ptr, align 8
  %4 = alloca ptr, align 8
  %5 = alloca ptr, align 8
  store ptr %0, ptr %3, align 8
  store ptr %1, ptr %4, align 8
  %6 = load ptr, ptr %4, align 8
  %7 = getelementptr inbounds %struct.Decl_, ptr %6, i32 0, i32 10
  %8 = load ptr, ptr %7, align 8
  %9 = call ptr @type_lowering(ptr noundef %8)
  store ptr %9, ptr %5, align 8
  %10 = load ptr, ptr %5, align 8
  %11 = load ptr, ptr @type_void, align 8
  %12 = icmp eq ptr %10, %11
  br i1 %12, label %13, label %14

13:                                               ; preds = %2
  br label %36

14:                                               ; preds = %2
  %15 = load ptr, ptr %3, align 8
  %16 = load ptr, ptr %3, align 8
  %17 = load ptr, ptr %5, align 8
  %18 = call ptr @llvm_get_type(ptr noundef %16, ptr noundef %17)
  %19 = load ptr, ptr %4, align 8
  %20 = getelementptr inbounds %struct.Decl_, ptr %19, i32 0, i32 5
  %21 = load i32, ptr %20, align 8
  %22 = load ptr, ptr %4, align 8
  %23 = getelementptr inbounds %struct.Decl_, ptr %22, i32 0, i32 0
  %24 = load ptr, ptr %23, align 8
  %25 = icmp ne ptr %24, null
  br i1 %25, label %26, label %30

26:                                               ; preds = %14
  %27 = load ptr, ptr %4, align 8
  %28 = getelementptr inbounds %struct.Decl_, ptr %27, i32 0, i32 0
  %29 = load ptr, ptr %28, align 8
  br label %31

30:                                               ; preds = %14
  br label %31

31:                                               ; preds = %30, %26
  %32 = phi ptr [ %29, %26 ], [ @.str.12, %30 ]
  %33 = call ptr @llvm_emit_alloca(ptr noundef %15, ptr noundef %18, i32 noundef %21, ptr noundef %32)
  %34 = load ptr, ptr %4, align 8
  %35 = getelementptr inbounds %struct.Decl_, ptr %34, i32 0, i32 4
  store ptr %33, ptr %35, align 8
  br label %36

36:                                               ; preds = %31, %13
  ret void
}