; Function Attrs: nounwind uwtable
define dso_local void @llvm_emit_and_set_decl_alloca(ptr noundef %0, ptr nocapture noundef %1) local_unnamed_addr #0 {
  %3 = getelementptr inbounds i8, ptr %1, i64 72
  %4 = load ptr, ptr %3, align 8
  %5 = tail call fastcc ptr @type_lowering(ptr noundef %4)
  %6 = load ptr, ptr @type_void, align 8
  %7 = icmp eq ptr %5, %6
  br i1 %7, label %23, label %8

8:                                                ; preds = %2
  %9 = tail call ptr @llvm_get_type(ptr noundef %0, ptr noundef %5) #10
  %10 = getelementptr inbounds i8, ptr %1, i64 40
  %11 = load i32, ptr %10, align 8
  %12 = load ptr, ptr %1, align 8
  %.not = icmp eq ptr %12, null
  %spec.select = select i1 %.not, ptr @.str.12, ptr %12
  %13 = getelementptr inbounds i8, ptr %0, i64 64
  %14 = load ptr, ptr %13, align 8
  %15 = tail call ptr @LLVMGetInsertBlock(ptr noundef %14) #10
  %16 = load ptr, ptr %13, align 8
  %17 = getelementptr inbounds i8, ptr %0, i64 56
  %18 = load ptr, ptr %17, align 8
  tail call void @LLVMPositionBuilderBefore(ptr noundef %16, ptr noundef %18) #10
  %19 = load ptr, ptr %13, align 8
  %20 = tail call ptr @LLVMBuildAlloca(ptr noundef %19, ptr noundef %9, ptr noundef nonnull %spec.select) #10
  tail call void @LLVMSetAlignment(ptr noundef %20, i32 noundef %11) #10
  %21 = load ptr, ptr %13, align 8
  tail call void @LLVMPositionBuilderAtEnd(ptr noundef %21, ptr noundef %15) #10
  %22 = getelementptr inbounds i8, ptr %1, i64 32
  store ptr %20, ptr %22, align 8
  br label %23

23:                                               ; preds = %2, %8
  ret void
}